; Function Attrs: mustprogress uwtable
define noundef i64 @_ZNK6google8protobuf11StringPiece5rfindES1_m(ptr noundef nonnull readonly align 8 captures(none) dereferenceable(16) %0, ptr %1, i64 %2, i64 noundef %3) local_unnamed_addr #0 align 2 {
  %5 = alloca %"class.std::reverse_iterator", align 8
  %6 = alloca %"class.std::reverse_iterator", align 8
  %7 = alloca %"class.std::reverse_iterator", align 8
  %8 = alloca %"class.std::reverse_iterator", align 8
  %9 = alloca %"class.std::reverse_iterator", align 8
  %10 = getelementptr inbounds nuw i8, ptr %0, i64 8
  %11 = load i64, ptr %10, align 8, !tbaa !10
  %12 = icmp slt i64 %11, %2
  br i1 %12, label %29, label %13

13:                                               ; preds = %4
  %14 = icmp eq i64 %2, 0
  br i1 %14, label %15, label %_ZSt8find_endIPKcS1_ET_S2_S2_T0_S3_.exit

15:                                               ; preds = %13
  %.sroa.speculated16 = tail call i64 @llvm.umin.i64(i64 %3, i64 %11)
  br label %29

_ZSt8find_endIPKcS1_ET_S2_S2_T0_S3_.exit:         ; preds = %13
  %16 = load ptr, ptr %0, align 8, !tbaa !3
  %17 = sub i64 %11, %2
  %.sroa.speculated = tail call i64 @llvm.umin.i64(i64 %3, i64 %17)
  %18 = getelementptr inbounds nuw i8, ptr %16, i64 %.sroa.speculated
  %19 = getelementptr inbounds i8, ptr %18, i64 %2
  %20 = getelementptr inbounds i8, ptr %1, i64 %2
  call void @llvm.lifetime.start.p0(i64 8, ptr nonnull %6)
  call void @llvm.lifetime.start.p0(i64 8, ptr nonnull %7)
  call void @llvm.lifetime.start.p0(i64 8, ptr nonnull %8)
  call void @llvm.lifetime.start.p0(i64 8, ptr nonnull %9)
  call void @llvm.lifetime.start.p0(i64 8, ptr nonnull %5) #16
  store ptr %19, ptr %6, align 8, !tbaa !14
  store ptr %16, ptr %7, align 8, !tbaa !14
  store ptr %20, ptr %8, align 8, !tbaa !14
  store ptr %1, ptr %9, align 8, !tbaa !14
  call void @_ZSt8__searchISt16reverse_iteratorIPKcES3_N9__gnu_cxx5__ops19_Iter_equal_to_iterEET_S7_S7_T0_S8_T1_(ptr dead_on_unwind nonnull writable sret(%"class.std::reverse_iterator") align 8 %5, ptr noundef nonnull %6, ptr noundef nonnull %7, ptr noundef nonnull %8, ptr noundef nonnull %9)
  %21 = load ptr, ptr %5, align 8, !tbaa !14
  %22 = icmp eq ptr %21, %16
  %diff.neg = sub i64 0, %2
  %23 = getelementptr inbounds i8, ptr %21, i64 %diff.neg
  %.0.i.i = select i1 %22, ptr %19, ptr %23
  call void @llvm.lifetime.end.p0(i64 8, ptr nonnull %5) #16
  call void @llvm.lifetime.end.p0(i64 8, ptr nonnull %6)
  call void @llvm.lifetime.end.p0(i64 8, ptr nonnull %7)
  call void @llvm.lifetime.end.p0(i64 8, ptr nonnull %8)
  call void @llvm.lifetime.end.p0(i64 8, ptr nonnull %9)
  %.not = icmp eq ptr %.0.i.i, %19
  %24 = load ptr, ptr %0, align 8
  %25 = ptrtoint ptr %.0.i.i to i64
  %26 = ptrtoint ptr %24 to i64
  %27 = sub i64 %25, %26
  %28 = select i1 %.not, i64 -1, i64 %27
  br label %29

29:                                               ; preds = %15, %_ZSt8find_endIPKcS1_ET_S2_S2_T0_S3_.exit, %4
  %.0 = phi i64 [ -1, %4 ], [ %.sroa.speculated16, %15 ], [ %28, %_ZSt8find_endIPKcS1_ET_S2_S2_T0_S3_.exit ]
  ret i64 %.0
}